target datalayout = "e-m:e-p270:32:32-p271:32:32-p272:64:64-i64:64-i128:128-f80:128-n8:16:32:64-S128"
target triple = "x86_64-pc-linux-gnu"

%struct.ZSTD_customMem = type { ptr, ptr, ptr }
%struct.ZSTD_frameParameters = type { i32, i32, i32 }
%struct.ZSTD_compressionParameters = type { i32, i32, i32, i32, i32, i32, i32 }
%struct.ZSTD_CCtx_s = type { i32, i32, i32, %struct.ZSTD_CCtx_params_s, %struct.ZSTD_CCtx_params_s, %struct.ZSTD_CCtx_params_s, i32, i64, %struct.ZSTD_cwksp, i64, i64, i64, i64, %struct.XXH64_state_s, %struct.ZSTD_customMem, ptr, i64, %struct.SeqCollector, i32, i32, %struct.seqStore_t, %struct.ldmState_t, ptr, i64, %struct.rawSeqStore_t, %struct.ZSTD_blockState_t, ptr, i32, ptr, i64, i64, i64, i64, ptr, i64, i64, i64, i32, i32, %struct.ZSTD_inBuffer_s, i64, i64, %struct.ZSTD_localDict, ptr, %struct.ZSTD_prefixDict_s, i64, %struct.ZSTD_blockSplitCtx, %struct.ZSTD_externalMatchCtx }
%struct.ZSTD_CCtx_params_s = type { i32, %struct.ZSTD_compressionParameters, %struct.ZSTD_frameParameters, i32, i32, i64, i32, i32, i32, i32, i64, i32, i32, %struct.ldmParams_t, i32, i32, i32, i32, i32, i32, i32, i32, %struct.ZSTD_customMem, i32, i32, i32, i64, i32 }
%struct.ldmParams_t = type { i32, i32, i32, i32, i32, i32 }
%struct.ZSTD_cwksp = type { ptr, ptr, ptr, ptr, ptr, ptr, ptr, i8, i32, i32, i32 }
%struct.XXH64_state_s = type { i64, [4 x i64], [4 x i64], i32, i32, i64 }
%struct.SeqCollector = type { i32, ptr, i64, i64 }
%struct.seqStore_t = type { ptr, ptr, ptr, ptr, ptr, ptr, ptr, i64, i64, i32, i32 }
%struct.ldmState_t = type { %struct.ZSTD_window_t, ptr, i32, ptr, [64 x i64], [64 x %struct.ldmMatchCandidate_t] }
%struct.ZSTD_window_t = type { ptr, ptr, ptr, i32, i32, i32 }
%struct.ldmMatchCandidate_t = type { ptr, i32, i32, ptr }
%struct.rawSeqStore_t = type { ptr, i64, i64, i64, i64 }
%struct.ZSTD_blockState_t = type { ptr, ptr, %struct.ZSTD_matchState_t }
%struct.ZSTD_matchState_t = type { %struct.ZSTD_window_t, i32, i32, i32, i32, ptr, [8 x i32], i64, i32, ptr, ptr, ptr, i32, i32, %struct.optState_t, ptr, %struct.ZSTD_compressionParameters, ptr, i32, i32 }
%struct.optState_t = type { ptr, ptr, ptr, ptr, ptr, ptr, i32, i32, i32, i32, i32, i32, i32, i32, i32, ptr, i32 }
%struct.ZSTD_inBuffer_s = type { ptr, i64, i64 }
%struct.ZSTD_localDict = type { ptr, ptr, i64, i32, ptr }
%struct.ZSTD_prefixDict_s = type { ptr, i64, i32 }
%struct.ZSTD_blockSplitCtx = type { %struct.seqStore_t, %struct.seqStore_t, %struct.seqStore_t, %struct.seqStore_t, %struct.seqStore_t, [196 x i32], %struct.ZSTD_entropyCTablesMetadata_t }
%struct.ZSTD_entropyCTablesMetadata_t = type { %struct.ZSTD_hufCTablesMetadata_t, %struct.ZSTD_fseCTablesMetadata_t }
%struct.ZSTD_hufCTablesMetadata_t = type { i32, [128 x i8], i64 }
%struct.ZSTD_fseCTablesMetadata_t = type { i32, i32, i32, [133 x i8], i64, i64 }
%struct.ZSTD_externalMatchCtx = type { ptr, ptr, ptr, i64 }

; Function Attrs: nounwind uwtable
define dso_local i64 @ZSTD_CCtx_refPrefix_advanced(ptr noundef %0, ptr noundef %1, i64 noundef %2, i32 noundef %3) #0 {
  %5 = alloca i64, align 8
  %6 = alloca ptr, align 8
  %7 = alloca ptr, align 8
  %8 = alloca i64, align 8
  %9 = alloca i32, align 4
  store ptr %0, ptr %6, align 8
  store ptr %1, ptr %7, align 8
  store i64 %2, ptr %8, align 8
  store i32 %3, ptr %9, align 4
  %10 = load ptr, ptr %6, align 8
  %11 = getelementptr inbounds %struct.ZSTD_CCtx_s, ptr %10, i32 0, i32 37
  %12 = load i32, ptr %11, align 8
  %13 = icmp ne i32 %12, 0
  br i1 %13, label %14, label %15

14:                                               ; preds = %4
  store i64 -60, ptr %5, align 8
  br label %36

15:                                               ; preds = %4
  %16 = load ptr, ptr %6, align 8
  call void @ZSTD_clearAllDicts(ptr noundef %16)
  %17 = load ptr, ptr %7, align 8
  %18 = icmp ne ptr %17, null
  br i1 %18, label %19, label %35

19:                                               ; preds = %15
  %20 = load i64, ptr %8, align 8
  %21 = icmp ugt i64 %20, 0
  br i1 %21, label %22, label %35

22:                                               ; preds = %19
  %23 = load ptr, ptr %7, align 8
  %24 = load ptr, ptr %6, align 8
  %25 = getelementptr inbounds %struct.ZSTD_CCtx_s, ptr %24, i32 0, i32 44
  %26 = getelementptr inbounds %struct.ZSTD_prefixDict_s, ptr %25, i32 0, i32 0
  store ptr %23, ptr %26, align 8
  %27 = load i64, ptr %8, align 8
  %28 = load ptr, ptr %6, align 8
  %29 = getelementptr inbounds %struct.ZSTD_CCtx_s, ptr %28, i32 0, i32 44
  %30 = getelementptr inbounds %struct.ZSTD_prefixDict_s, ptr %29, i32 0, i32 1
  store i64 %27, ptr %30, align 8
  %31 = load i32, ptr %9, align 4
  %32 = load ptr, ptr %6, align 8
  %33 = getelementptr inbounds %struct.ZSTD_CCtx_s, ptr %32, i32 0, i32 44
  %34 = getelementptr inbounds %struct.ZSTD_prefixDict_s, ptr %33, i32 0, i32 2
  store i32 %31, ptr %34, align 8
  br label %35

35:                                               ; preds = %22, %19, %15
  store i64 0, ptr %5, align 8
  br label %36

36:                                               ; preds = %35, %14
  %37 = load i64, ptr %5, align 8
  ret i64 %37
}