; Function Attrs: nounwind uwtable
define dso_local range(i64 -60, 1) i64 @ZSTD_CCtx_refPrefix_advanced(ptr noundef captures(none) %0, ptr noundef %1, i64 noundef %2, i32 noundef %3) local_unnamed_addr #1 {
  %5 = getelementptr inbounds nuw i8, ptr %0, i64 3584
  %6 = load i32, ptr %5, align 8
  %.not = icmp eq i32 %6, 0
  br i1 %.not, label %7, label %14

7:                                                ; preds = %4
  tail call fastcc void @ZSTD_clearAllDicts(ptr noundef nonnull %0)
  %8 = icmp ne ptr %1, null
  %9 = icmp ne i64 %2, 0
  %or.cond = and i1 %8, %9
  br i1 %or.cond, label %10, label %14

10:                                               ; preds = %7
  %11 = getelementptr inbounds nuw i8, ptr %0, i64 3680
  store ptr %1, ptr %11, align 8
  %12 = getelementptr inbounds nuw i8, ptr %0, i64 3688
  store i64 %2, ptr %12, align 8
  %13 = getelementptr inbounds nuw i8, ptr %0, i64 3696
  store i32 %3, ptr %13, align 8
  br label %14

14:                                               ; preds = %7, %10, %4
  %.0 = phi i64 [ -60, %4 ], [ 0, %10 ], [ 0, %7 ]
  ret i64 %.0
}